; Function Attrs: mustprogress uwtable
define void @_ZNK6google8protobuf11MessageLite24SerializePartialAsStringB5cxx11Ev(ptr dead_on_unwind noalias nonnull writable sret(%"class.std::__cxx11::basic_string") align 8 %0, ptr noundef nonnull align 8 dereferenceable(16) %1) local_unnamed_addr #3 align 2 personality ptr @__gxx_personality_v0 {
  tail call void @_ZNSt7__cxx1112basic_stringIcSt11char_traitsIcESaIcEEC1Ev(ptr noundef nonnull align 8 dereferenceable(32) %0) #15
  %3 = invoke noundef zeroext i1 @_ZNK6google8protobuf11MessageLite21AppendPartialToStringEPNSt7__cxx1112basic_stringIcSt11char_traitsIcESaIcEEE(ptr noundef nonnull align 8 dereferenceable(16) %1, ptr noundef nonnull %0)
          to label %4 unwind label %6

4:                                                ; preds = %2
  br i1 %3, label %8, label %5

5:                                                ; preds = %4
  tail call void @_ZNSt7__cxx1112basic_stringIcSt11char_traitsIcESaIcEE5clearEv(ptr noundef nonnull align 8 dereferenceable(32) %0) #15
  br label %8

6:                                                ; preds = %2
  %7 = landingpad { ptr, i32 }
          cleanup
  tail call void @_ZNSt7__cxx1112basic_stringIcSt11char_traitsIcESaIcEED1Ev(ptr noundef nonnull align 8 dereferenceable(32) %0) #15
  resume { ptr, i32 } %7

8:                                                ; preds = %4, %5
  ret void
}